Certificate:
    Data:
        Version: 3 (0x2)
        Serial Number: 1 (0x1)
    Signature Algorithm: sha256WithRSAEncryption
        Issuer: C=LT, ST=Kaunas, L=Kaunas, O=KTU, OU=IF, CN=lab.darbo.CA/emailAddress=stud@if.ktu.lt
        Validity
            Not Before: Oct 17 10:52:13 2017 GMT
            Not After : Oct 17 10:52:13 2018 GMT
        Subject: C=LT, ST=Kaunas, O=KTU, OU=IF, CN=ca.ssl.lab/emailAddress=stud@if.ktu.lt
        Subject Public Key Info:
            Public Key Algorithm: rsaEncryption
                Public-Key: (2048 bit)
                Modulus:
                    00:ba:1e:00:9e:99:65:bb:0f:0c:85:bf:c8:c3:b8:
                    ad:44:58:e5:91:25:70:84:93:95:b5:18:8b:9d:0a:
                    94:b5:5c:54:36:ac:c7:81:bc:7b:d3:30:f8:07:04:
                    44:1b:fd:50:62:91:11:3d:13:80:0c:bf:de:6b:38:
                    1d:3a:c9:48:c3:60:bf:be:db:aa:dc:7d:6a:10:4b:
                    0a:ad:81:13:15:77:cf:a0:9d:e2:26:d3:af:d9:3c:
                    8e:d8:52:d6:3e:51:4d:b2:ff:aa:3b:50:f3:d2:43:
                    b4:1e:43:33:9c:c6:f2:ef:24:f4:8f:b2:28:28:46:
                    d7:5d:59:3a:3f:9a:af:9d:b7:a0:8a:33:c7:5f:17:
                    09:ef:5c:19:14:97:a5:d2:68:94:07:ac:74:3d:38:
                    7f:f4:0a:f4:81:94:36:db:7e:b5:52:ed:32:c3:c5:
                    49:17:95:f7:af:aa:c0:7e:33:e6:1b:8c:dc:71:25:
                    ae:91:63:1e:6e:9c:a3:be:6d:0f:97:03:60:42:a4:
                    80:af:f8:fd:ff:dc:45:13:26:cb:aa:ed:25:db:c9:
                    38:5e:73:39:69:31:2a:01:66:73:34:66:f8:7e:ed:
                    53:f3:83:50:8b:6c:dc:0e:59:a5:7e:fd:73:7b:cd:
                    3e:ac:8c:5d:eb:61:17:5c:3b:40:50:8b:9d:7b:c8:
                    8a:ad
                Exponent: 65537 (0x10001)
        X509v3 extensions:
            X509v3 Basic Constraints: 
                CA:FALSE
            Netscape Comment: 
                OpenSSL Generated Certificate
            X509v3 Subject Key Identifier: 
                FE:7D:E3:E9:E4:24:C9:CD:D0:FF:77:D6:54:78:BF:0E:97:02:A1:B1
            X509v3 Authority Key Identifier: 
                keyid:2F:62:C0:31:00:3A:6F:0C:5B:28:5C:D0:0D:44:77:A4:7C:DF:1E:DE

    Signature Algorithm: sha256WithRSAEncryption
         a0:d0:fb:a8:3d:01:dd:30:8d:37:35:08:e5:c3:92:6e:7e:d4:
         0b:1e:4a:7a:03:c2:07:50:ae:80:5f:3f:61:eb:6f:60:c8:f3:
         ed:85:f1:86:48:43:a1:f8:47:72:c6:6b:b9:62:6d:ae:90:96:
         92:70:82:0b:ad:c4:13:03:e0:29:fb:73:5d:62:02:84:9c:1d:
         44:7b:95:68:4e:09:c4:6b:01:80:54:a2:f1:c5:18:82:af:fc:
         e9:ae:d2:0a:15:7a:3a:ec:ba:70:9b:de:49:6a:ed:92:7f:aa:
         b5:48:56:be:6e:06:4e:c2:6d:e1:23:48:12:d9:c8:7c:dc:28:
         c4:5a:1a:15:66:47:a8:35:20:24:80:92:12:bf:00:64:37:24:
         86:8c:2f:91:6d:af:ab:10:95:0d:1b:03:dd:aa:5e:54:e5:83:
         b6:24:43:b1:f9:d7:02:70:e6:1d:98:7a:72:dd:72:a8:10:2e:
         57:56:40:19:28:86:0c:54:de:66:be:4e:0b:de:fa:ff:80:4c:
         61:49:eb:3d:d7:f0:82:1c:d2:aa:0d:6f:8f:6e:98:6c:2f:bb:
         5c:3e:db:23:79:ba:f0:25:ac:c2:cf:cb:40:5f:2e:e5:25:8b:
         1d:e4:b8:e2:e7:67:4e:bc:30:9a:8b:01:0a:67:92:6d:d2:7b:
         b8:e5:c4:28
-----BEGIN CERTIFICATE-----
MIID5DCCAsygAwIBAgIBATANBgkqhkiG9w0BAQsFADCBgDELMAkGA1UEBhMCTFQx
DzANBgNVBAgMBkthdW5hczEPMA0GA1UEBwwGS2F1bmFzMQwwCgYDVQQKDANLVFUx
CzAJBgNVBAsMAklGMRUwEwYDVQQDDAxsYWIuZGFyYm8uQ0ExHTAbBgkqhkiG9w0B
CQEWDnN0dWRAaWYua3R1Lmx0MB4XDTE3MTAxNzEwNTIxM1oXDTE4MTAxNzEwNTIx
M1owbTELMAkGA1UEBhMCTFQxDzANBgNVBAgMBkthdW5hczEMMAoGA1UECgwDS1RV
MQswCQYDVQQLDAJJRjETMBEGA1UEAwwKY2Euc3NsLmxhYjEdMBsGCSqGSIb3DQEJ
ARYOc3R1ZEBpZi5rdHUubHQwggEiMA0GCSqGSIb3DQEBAQUAA4IBDwAwggEKAoIB
AQC6HgCemWW7DwyFv8jDuK1EWOWRJXCEk5W1GIudCpS1XFQ2rMeBvHvTMPgHBEQb
/VBikRE9E4AMv95rOB06yUjDYL++26rcfWoQSwqtgRMVd8+gneIm06/ZPI7YUtY+
UU2y/6o7UPPSQ7QeQzOcxvLvJPSPsigoRtddWTo/mq+dt6CKM8dfFwnvXBkUl6XS
aJQHrHQ9OH/0CvSBlDbbfrVS7TLDxUkXlfevqsB+M+YbjNxxJa6RYx5unKO+bQ+X
A2BCpICv+P3/3EUTJsuq7SXbyTheczlpMSoBZnM0Zvh+7VPzg1CLbNwOWaV+/XN7
zT6sjF3rYRdcO0BQi517yIqtAgMBAAGjezB5MAkGA1UdEwQCMAAwLAYJYIZIAYb4
QgENBB8WHU9wZW5TU0wgR2VuZXJhdGVkIENlcnRpZmljYXRlMB0GA1UdDgQWBBT+
fePp5CTJzdD/d9ZUeL8OlwKhsTAfBgNVHSMEGDAWgBQvYsAxADpvDFsoXNANRHek
fN8e3jANBgkqhkiG9w0BAQsFAAOCAQEAoND7qD0B3TCNNzUI5cOSbn7UCx5KegPC
B1CugF8/YetvYMjz7YXxhkhDofhHcsZruWJtrpCWknCCC63EEwPgKftzXWIChJwd
RHuVaE4JxGsBgFSi8cUYgq/86a7SChV6Ouy6cJveSWrtkn+qtUhWvm4GTsJt4SNI
EtnIfNwoxFoaFWZHqDUgJICSEr8AZDckhowvkW2vqxCVDRsD3apeVOWDtiRDsfnX
AnDmHZh6ct1yqBAuV1ZAGSiGDFTeZr5OC976/4BMYUnrPdfwghzSqg1vj26YbC+7
XD7bI3m68CWsws/LQF8u5SWLHeS44udnTrwwmosBCmeSbdJ7uOXEKA==
-----END CERTIFICATE-----
