Certificate:
    Data:
        Version: 3 (0x2)
        Serial Number: 3 (0x3)
    Signature Algorithm: sha256WithRSAEncryption
        Issuer: C=LT, ST=Kaunas, L=Kaunas, O=KTU, OU=IF, CN=lab.darbo.CA/emailAddress=stud@if.ktu.lt
        Validity
            Not Before: Oct 17 11:14:24 2017 GMT
            Not After : Oct 17 11:14:24 2018 GMT
        Subject: C=LT, ST=Kaunas, O=KTU, OU=IF, CN=mano.asmeninis/emailAddress=stud@if.ktu.lt
        Subject Public Key Info:
            Public Key Algorithm: rsaEncryption
                Public-Key: (2048 bit)
                Modulus:
                    00:ea:ef:d7:2e:99:4f:f0:da:06:9b:9e:8f:39:b8:
                    d5:b4:f5:05:d0:54:5e:fa:96:8e:9f:9c:8f:23:33:
                    e5:fc:53:03:db:88:21:11:76:fc:27:02:37:b5:7f:
                    2e:96:7c:95:f6:33:fa:45:4f:c1:2b:8f:4e:b1:a9:
                    28:4e:a1:c4:28:0f:7a:61:92:3f:d2:68:f4:1b:35:
                    d6:57:cc:e7:b4:7a:f0:50:6f:bf:c7:16:e3:f0:5e:
                    3b:d4:12:34:25:0a:ab:4a:fe:fa:69:e7:b2:30:a6:
                    d7:c8:6f:f6:4a:63:8b:3f:d9:d9:58:0b:77:76:17:
                    6e:ba:44:27:7f:ac:55:06:0f:92:90:88:99:eb:8b:
                    d9:ec:fa:92:a2:b4:f8:01:81:32:08:eb:83:f2:1b:
                    59:e3:74:82:18:f1:3d:ca:3a:1b:3b:ca:f7:7f:57:
                    e5:8b:dc:e2:13:5b:af:26:0c:44:44:3f:f7:a4:40:
                    b9:ed:0d:a2:f5:96:82:13:52:4f:19:e6:e5:86:95:
                    10:34:c8:30:86:c2:8a:95:ce:d2:c8:b2:16:63:22:
                    3f:8f:37:08:01:64:c1:91:5c:df:e0:05:42:51:61:
                    1f:51:25:f7:11:40:c6:61:75:47:92:ce:84:97:5e:
                    64:6b:11:43:20:23:4e:a1:02:15:99:68:26:03:81:
                    2c:7d
                Exponent: 65537 (0x10001)
        X509v3 extensions:
            X509v3 Basic Constraints: 
                CA:FALSE
            Netscape Comment: 
                OpenSSL Generated Certificate
            X509v3 Subject Key Identifier: 
                9E:B2:50:5F:BD:3C:F3:69:4A:F9:1C:7B:F8:BB:46:BE:7E:D6:47:34
            X509v3 Authority Key Identifier: 
                keyid:2F:62:C0:31:00:3A:6F:0C:5B:28:5C:D0:0D:44:77:A4:7C:DF:1E:DE

    Signature Algorithm: sha256WithRSAEncryption
         1b:66:b0:5c:e9:82:4e:18:f3:29:c8:93:b0:23:e2:47:cf:c8:
         89:1b:98:d5:95:3f:48:b9:e7:9a:00:9e:22:23:90:8b:e2:e0:
         a2:dc:3e:4f:1c:0c:b0:b2:cd:91:27:ee:71:d5:16:54:cd:66:
         68:3c:b5:d0:55:b7:87:f7:01:1f:86:66:17:63:df:51:23:2d:
         a0:62:ff:92:fa:ff:ae:20:c0:d8:79:1e:76:5c:18:e9:6c:ae:
         28:4a:0c:43:71:63:00:86:32:6c:02:59:4a:11:59:0d:44:f1:
         10:89:f3:64:83:f7:62:33:d0:fc:37:3d:b6:1e:c9:07:e0:a8:
         84:45:bb:22:1c:e6:ed:43:de:92:0c:f5:a3:ae:e7:bb:04:a2:
         61:30:a2:39:98:17:58:da:8e:a5:95:ba:76:e9:87:4f:ab:0c:
         9b:61:23:3e:9a:24:0b:14:02:ae:07:33:a3:76:68:5c:d4:2f:
         84:14:8e:3b:ba:4f:8d:45:01:99:ad:83:eb:fb:37:31:25:b3:
         af:b1:62:41:db:98:13:db:e4:fc:95:49:0e:f9:0f:59:a9:15:
         75:54:cf:d7:1a:cd:20:7d:24:d4:46:b2:7b:d2:9a:9f:ea:68:
         05:6f:2b:dd:35:36:ec:93:bb:b1:e7:d8:db:52:8a:60:f4:a2:
         dc:d1:5b:c1
-----BEGIN CERTIFICATE-----
MIID6DCCAtCgAwIBAgIBAzANBgkqhkiG9w0BAQsFADCBgDELMAkGA1UEBhMCTFQx
DzANBgNVBAgMBkthdW5hczEPMA0GA1UEBwwGS2F1bmFzMQwwCgYDVQQKDANLVFUx
CzAJBgNVBAsMAklGMRUwEwYDVQQDDAxsYWIuZGFyYm8uQ0ExHTAbBgkqhkiG9w0B
CQEWDnN0dWRAaWYua3R1Lmx0MB4XDTE3MTAxNzExMTQyNFoXDTE4MTAxNzExMTQy
NFowcTELMAkGA1UEBhMCTFQxDzANBgNVBAgMBkthdW5hczEMMAoGA1UECgwDS1RV
MQswCQYDVQQLDAJJRjEXMBUGA1UEAwwObWFuby5hc21lbmluaXMxHTAbBgkqhkiG
9w0BCQEWDnN0dWRAaWYua3R1Lmx0MIIBIjANBgkqhkiG9w0BAQEFAAOCAQ8AMIIB
CgKCAQEA6u/XLplP8NoGm56PObjVtPUF0FRe+paOn5yPIzPl/FMD24ghEXb8JwI3
tX8ulnyV9jP6RU/BK49OsakoTqHEKA96YZI/0mj0GzXWV8zntHrwUG+/xxbj8F47
1BI0JQqrSv76aeeyMKbXyG/2SmOLP9nZWAt3dhduukQnf6xVBg+SkIiZ64vZ7PqS
orT4AYEyCOuD8htZ43SCGPE9yjobO8r3f1fli9ziE1uvJgxERD/3pEC57Q2i9ZaC
E1JPGeblhpUQNMgwhsKKlc7SyLIWYyI/jzcIAWTBkVzf4AVCUWEfUSX3EUDGYXVH
ks6El15kaxFDICNOoQIVmWgmA4EsfQIDAQABo3sweTAJBgNVHRMEAjAAMCwGCWCG
SAGG+EIBDQQfFh1PcGVuU1NMIEdlbmVyYXRlZCBDZXJ0aWZpY2F0ZTAdBgNVHQ4E
FgQUnrJQX70882lK+Rx7+LtGvn7WRzQwHwYDVR0jBBgwFoAUL2LAMQA6bwxbKFzQ
DUR3pHzfHt4wDQYJKoZIhvcNAQELBQADggEBABtmsFzpgk4Y8ynIk7Aj4kfPyIkb
mNWVP0i555oAniIjkIvi4KLcPk8cDLCyzZEn7nHVFlTNZmg8tdBVt4f3AR+GZhdj
31EjLaBi/5L6/64gwNh5HnZcGOlsrihKDENxYwCGMmwCWUoRWQ1E8RCJ82SD92Iz
0Pw3PbYeyQfgqIRFuyIc5u1D3pIM9aOu57sEomEwojmYF1jajqWVunbph0+rDJth
Iz6aJAsUAq4HM6N2aFzUL4QUjju6T41FAZmtg+v7NzEls6+xYkHbmBPb5PyVSQ75
D1mpFXVUz9cazSB9JNRGsnvSmp/qaAVvK901NuyTu7Hn2NtSimD0otzRW8E=
-----END CERTIFICATE-----
